; Function Attrs: nounwind sspstrong uwtable
define internal i64 @ossl_sslctx_set_ecdh_curves(i64 noundef %0, i64 noundef %1) #0 {
  %3 = alloca i64, align 8
  store i64 %1, ptr %3, align 8, !tbaa !10
  %4 = icmp eq i64 %0, 0
  %5 = and i64 %0, 7
  %6 = icmp ne i64 %5, 0
  %7 = or i1 %4, %6
  br i1 %7, label %RB_OBJ_FROZEN.exit.thread.i, label %RB_FL_ABLE.exit.i.i, !prof !17

RB_FL_ABLE.exit.i.i:                              ; preds = %2
  %8 = inttoptr i64 %0 to ptr
  %9 = load i64, ptr %8, align 8, !tbaa !18
  %10 = and i64 %9, 31
  %.not.i.i = icmp eq i64 %10, 27
  %11 = and i64 %9, 2048
  %12 = icmp ne i64 %11, 0
  %or.cond.i = or i1 %.not.i.i, %12
  br i1 %or.cond.i, label %RB_OBJ_FROZEN.exit.thread.i, label %rbimpl_RB_TYPE_P_fastpath.exit.i, !prof !19

RB_OBJ_FROZEN.exit.thread.i:                      ; preds = %RB_FL_ABLE.exit.i.i, %2
  tail call void @rb_error_frozen_object(i64 noundef %0) #10
  unreachable

rbimpl_RB_TYPE_P_fastpath.exit.i:                 ; preds = %RB_FL_ABLE.exit.i.i
  %13 = icmp ne i64 %10, 5
  %14 = and i64 %9, 49152
  %.not.i = icmp eq i64 %14, 0
  %or.cond8.i = or i1 %13, %.not.i
  br i1 %or.cond8.i, label %rb_check_frozen_inline.exit, label %15, !prof !20

15:                                               ; preds = %rbimpl_RB_TYPE_P_fastpath.exit.i
  tail call void @rb_str_modify(i64 noundef %0) #9
  br label %rb_check_frozen_inline.exit

rb_check_frozen_inline.exit:                      ; preds = %rbimpl_RB_TYPE_P_fastpath.exit.i, %15
  %16 = tail call ptr @rb_check_typeddata(i64 noundef %0, ptr noundef nonnull @ossl_sslctx_type) #9
  %17 = call ptr @rb_string_value_cstr(ptr noundef nonnull %3) #9
  %18 = load i64, ptr %3, align 8, !tbaa !10
  %19 = inttoptr i64 %18 to ptr
  %20 = load i64, ptr %19, align 8, !tbaa !18, !noalias !23
  %21 = and i64 %20, 8192
  %.not.i.i2 = icmp eq i64 %21, 0
  %22 = getelementptr inbounds nuw i8, ptr %19, i64 24
  br i1 %.not.i.i2, label %RSTRING_PTR.exit, label %23

23:                                               ; preds = %rb_check_frozen_inline.exit
  %.sroa.2.0.copyload.i = load ptr, ptr %22, align 8
  br label %RSTRING_PTR.exit

RSTRING_PTR.exit:                                 ; preds = %rb_check_frozen_inline.exit, %23
  %.sroa.2.0.i = phi ptr [ %.sroa.2.0.copyload.i, %23 ], [ %22, %rb_check_frozen_inline.exit ]
  %24 = call i64 @SSL_CTX_ctrl(ptr noundef %16, i32 noundef 92, i64 noundef 0, ptr noundef %.sroa.2.0.i) #9
  %.not = icmp eq i64 %24, 0
  br i1 %.not, label %25, label %27

25:                                               ; preds = %RSTRING_PTR.exit
  %26 = load i64, ptr @eSSLError, align 8, !tbaa !10
  call void (i64, ptr, ...) @ossl_raise(i64 noundef %26, ptr noundef null) #10
  unreachable

27:                                               ; preds = %RSTRING_PTR.exit
  %28 = load i64, ptr %3, align 8, !tbaa !10
  ret i64 %28
}